; Function Attrs: mustprogress nounwind uwtable
define internal fastcc void @_ZN12_GLOBAL__N_112ConstraintTyC2EOS0_(ptr noundef nonnull align 8 dereferenceable(243) %0, ptr noundef nonnull align 8 dereferenceable(243) %1) unnamed_addr #0 align 2 {
  %3 = getelementptr inbounds i8, ptr %0, i64 16
  tail call void @_ZN4llvm15SmallVectorBaseIjEC2EPvm(ptr noundef nonnull align 8 dereferenceable(16) %0, ptr noundef nonnull %3, i64 noundef 8) #21
  %4 = tail call noundef zeroext i1 @_ZNK4llvm15SmallVectorBaseIjE5emptyEv(ptr noundef nonnull align 8 dereferenceable(16) %1) #21
  br i1 %4, label %_ZN4llvm11SmallVectorIlLj8EEC2EOS1_.exit, label %5

5:                                                ; preds = %2
  %6 = tail call noundef nonnull align 8 dereferenceable(16) ptr @_ZN4llvm15SmallVectorImplIlEaSEOS1_(ptr noundef nonnull align 8 dereferenceable(16) %0, ptr noundef nonnull align 8 dereferenceable(16) %1)
  br label %_ZN4llvm11SmallVectorIlLj8EEC2EOS1_.exit

_ZN4llvm11SmallVectorIlLj8EEC2EOS1_.exit:         ; preds = %2, %5
  %7 = getelementptr inbounds nuw i8, ptr %0, i64 80
  %8 = getelementptr inbounds nuw i8, ptr %1, i64 80
  %9 = getelementptr inbounds i8, ptr %0, i64 96
  tail call void @_ZN4llvm15SmallVectorBaseIjEC2EPvm(ptr noundef nonnull align 8 dereferenceable(16) %7, ptr noundef nonnull %9, i64 noundef 2) #21
  %10 = tail call noundef zeroext i1 @_ZNK4llvm15SmallVectorBaseIjE5emptyEv(ptr noundef nonnull align 8 dereferenceable(16) %8) #21
  br i1 %10, label %_ZN4llvm11SmallVectorIN12_GLOBAL__N_111ConditionTyELj2EEC2EOS3_.exit, label %11

11:                                               ; preds = %_ZN4llvm11SmallVectorIlLj8EEC2EOS1_.exit
  %12 = tail call fastcc noundef nonnull align 8 dereferenceable(16) ptr @_ZN4llvm15SmallVectorImplIN12_GLOBAL__N_111ConditionTyEEaSEOS3_(ptr noundef nonnull align 8 dereferenceable(16) %7, ptr noundef nonnull align 8 dereferenceable(16) %8)
  br label %_ZN4llvm11SmallVectorIN12_GLOBAL__N_111ConditionTyELj2EEC2EOS3_.exit

_ZN4llvm11SmallVectorIN12_GLOBAL__N_111ConditionTyELj2EEC2EOS3_.exit: ; preds = %_ZN4llvm11SmallVectorIlLj8EEC2EOS1_.exit, %11
  %13 = getelementptr inbounds nuw i8, ptr %0, i64 144
  %14 = getelementptr inbounds nuw i8, ptr %1, i64 144
  %15 = getelementptr inbounds i8, ptr %0, i64 160
  tail call void @_ZN4llvm15SmallVectorBaseIjEC2EPvm(ptr noundef nonnull align 8 dereferenceable(16) %13, ptr noundef nonnull %15, i64 noundef 1) #21
  %16 = tail call noundef zeroext i1 @_ZNK4llvm15SmallVectorBaseIjE5emptyEv(ptr noundef nonnull align 8 dereferenceable(16) %14) #21
  br i1 %16, label %_ZN4llvm11SmallVectorINS0_IlLj8EEELj1EEC2EOS2_.exit, label %17

17:                                               ; preds = %_ZN4llvm11SmallVectorIN12_GLOBAL__N_111ConditionTyELj2EEC2EOS3_.exit
  %18 = tail call noundef nonnull align 8 dereferenceable(16) ptr @_ZN4llvm15SmallVectorImplINS_11SmallVectorIlLj8EEEEaSEOS3_(ptr noundef nonnull align 8 dereferenceable(16) %13, ptr noundef nonnull align 8 dereferenceable(16) %14)
  br label %_ZN4llvm11SmallVectorINS0_IlLj8EEELj1EEC2EOS2_.exit

_ZN4llvm11SmallVectorINS0_IlLj8EEELj1EEC2EOS2_.exit: ; preds = %_ZN4llvm11SmallVectorIN12_GLOBAL__N_111ConditionTyELj2EEC2EOS3_.exit, %17
  %19 = getelementptr inbounds nuw i8, ptr %0, i64 240
  %20 = getelementptr inbounds nuw i8, ptr %1, i64 240
  tail call void @llvm.memcpy.p0.p0.i64(ptr noundef nonnull align 8 dereferenceable(3) %19, ptr noundef nonnull align 8 dereferenceable(3) %20, i64 3, i1 false)
  ret void
}